target datalayout = "e-m:e-p270:32:32-p271:32:32-p272:64:64-i64:64-i128:128-f80:128-n8:16:32:64-S128"
target triple = "x86_64-pc-linux-gnu"

%struct.timespec = type { i64, i64 }

; Function Attrs: nounwind uwtable
define i32 @SUNProfiler_GetTimerResolution(ptr noundef %0, ptr noundef %1) #0 {
  %3 = alloca i32, align 4
  %4 = alloca ptr, align 8
  %5 = alloca ptr, align 8
  %6 = alloca %struct.timespec, align 8
  store ptr %0, ptr %4, align 8, !tbaa !12
  store ptr %1, ptr %5, align 8, !tbaa !38
  %7 = load ptr, ptr %4, align 8, !tbaa !12
  %8 = icmp ne ptr %7, null
  br i1 %8, label %10, label %9

9:                                                ; preds = %2
  store i32 -9999, ptr %3, align 4
  br label %17

10:                                               ; preds = %2
  call void @llvm.lifetime.start.p0(i64 16, ptr %6) #8
  %11 = call i32 @clock_getres(i32 noundef 1, ptr noundef %6) #8
  %12 = getelementptr inbounds nuw %struct.timespec, ptr %6, i32 0, i32 1
  %13 = load i64, ptr %12, align 8, !tbaa !30
  %14 = sitofp i64 %13 to double
  %15 = fmul double 1.000000e-09, %14
  %16 = load ptr, ptr %5, align 8, !tbaa !38
  store double %15, ptr %16, align 8, !tbaa !40
  store i32 0, ptr %3, align 4
  call void @llvm.lifetime.end.p0(i64 16, ptr %6) #8
  br label %17

17:                                               ; preds = %10, %9
  %18 = load i32, ptr %3, align 4
  ret i32 %18
}