; Function Attrs: nounwind uwtable
define range(i32 -9999, 1) i32 @SUNProfiler_GetTimerResolution(ptr noundef readnone captures(address_is_null) %0, ptr noundef writeonly captures(none) %1) local_unnamed_addr #0 {
  %3 = alloca %struct.timespec, align 8
  %.not = icmp eq ptr %0, null
  br i1 %.not, label %10, label %4

4:                                                ; preds = %2
  call void @llvm.lifetime.start.p0(i64 16, ptr nonnull %3) #18
  %5 = call i32 @clock_getres(i32 noundef 1, ptr noundef nonnull %3) #18
  %6 = getelementptr inbounds nuw i8, ptr %3, i64 8
  %7 = load i64, ptr %6, align 8, !tbaa !25
  %8 = sitofp i64 %7 to double
  %9 = fmul double %8, 1.000000e-09
  store double %9, ptr %1, align 8, !tbaa !32
  call void @llvm.lifetime.end.p0(i64 16, ptr nonnull %3) #18
  br label %10

10:                                               ; preds = %2, %4
  %.0 = phi i32 [ 0, %4 ], [ -9999, %2 ]
  ret i32 %.0
}